target datalayout = "e-m:e-p270:32:32-p271:32:32-p272:64:64-i64:64-i128:128-f80:128-n8:16:32:64-S128"
target triple = "x86_64-pc-linux-gnu"

%struct.H5B2_test_ctx_t = type { i8 }

@H5B2_init_g = external global i8, align 1
@H5_libterm_g = external global i8, align 1

; Function Attrs: nounwind uwtable
define internal i32 @H5B2__test_decode(ptr noundef %0, ptr noundef %1, ptr noundef %2) #0 {
  %4 = alloca ptr, align 8
  %5 = alloca ptr, align 8
  %6 = alloca ptr, align 8
  %7 = alloca ptr, align 8
  %8 = alloca i64, align 8
  store ptr %0, ptr %4, align 8, !tbaa !23
  store ptr %1, ptr %5, align 8, !tbaa !3
  store ptr %2, ptr %6, align 8, !tbaa !3
  call void @llvm.lifetime.start.p0(i64 8, ptr %7) #6
  %9 = load ptr, ptr %6, align 8, !tbaa !3
  store ptr %9, ptr %7, align 8, !tbaa !13
  %10 = load i8, ptr @H5B2_init_g, align 1, !tbaa !9, !range !11, !noundef !12
  %11 = trunc i8 %10 to i1
  br i1 %11, label %16, label %12

12:                                               ; preds = %3
  %13 = load i8, ptr @H5_libterm_g, align 1, !tbaa !9, !range !11, !noundef !12
  %14 = trunc i8 %13 to i1
  %15 = xor i1 %14, true
  br label %16

16:                                               ; preds = %12, %3
  %17 = phi i1 [ true, %3 ], [ %15, %12 ]
  %18 = xor i1 %17, true
  %19 = xor i1 %18, true
  %20 = zext i1 %19 to i32
  %21 = sext i32 %20 to i64
  %22 = call i64 @llvm.expect.i64(i64 %21, i64 1)
  %23 = icmp ne i64 %22, 0
  br i1 %23, label %24, label %130

24:                                               ; preds = %16
  br label %25

25:                                               ; preds = %24
  %26 = load ptr, ptr %7, align 8, !tbaa !13
  %27 = getelementptr inbounds nuw %struct.H5B2_test_ctx_t, ptr %26, i32 0, i32 0
  %28 = load i8, ptr %27, align 1, !tbaa !17
  %29 = zext i8 %28 to i32
  switch i32 %29, label %126 [
    i32 4, label %30
    i32 8, label %75
    i32 2, label %101
  ]

30:                                               ; preds = %25
  br label %31

31:                                               ; preds = %30
  %32 = load ptr, ptr %4, align 8, !tbaa !23
  %33 = load i8, ptr %32, align 1, !tbaa !25
  %34 = zext i8 %33 to i32
  %35 = and i32 %34, 255
  %36 = zext i32 %35 to i64
  %37 = load ptr, ptr %5, align 8, !tbaa !3
  store i64 %36, ptr %37, align 8, !tbaa !15
  %38 = load ptr, ptr %4, align 8, !tbaa !23
  %39 = getelementptr inbounds nuw i8, ptr %38, i32 1
  store ptr %39, ptr %4, align 8, !tbaa !23
  %40 = load ptr, ptr %4, align 8, !tbaa !23
  %41 = load i8, ptr %40, align 1, !tbaa !25
  %42 = zext i8 %41 to i32
  %43 = and i32 %42, 255
  %44 = shl i32 %43, 8
  %45 = zext i32 %44 to i64
  %46 = load ptr, ptr %5, align 8, !tbaa !3
  %47 = load i64, ptr %46, align 8, !tbaa !15
  %48 = or i64 %47, %45
  store i64 %48, ptr %46, align 8, !tbaa !15
  %49 = load ptr, ptr %4, align 8, !tbaa !23
  %50 = getelementptr inbounds nuw i8, ptr %49, i32 1
  store ptr %50, ptr %4, align 8, !tbaa !23
  %51 = load ptr, ptr %4, align 8, !tbaa !23
  %52 = load i8, ptr %51, align 1, !tbaa !25
  %53 = zext i8 %52 to i32
  %54 = and i32 %53, 255
  %55 = shl i32 %54, 16
  %56 = zext i32 %55 to i64
  %57 = load ptr, ptr %5, align 8, !tbaa !3
  %58 = load i64, ptr %57, align 8, !tbaa !15
  %59 = or i64 %58, %56
  store i64 %59, ptr %57, align 8, !tbaa !15
  %60 = load ptr, ptr %4, align 8, !tbaa !23
  %61 = getelementptr inbounds nuw i8, ptr %60, i32 1
  store ptr %61, ptr %4, align 8, !tbaa !23
  %62 = load ptr, ptr %4, align 8, !tbaa !23
  %63 = load i8, ptr %62, align 1, !tbaa !25
  %64 = zext i8 %63 to i32
  %65 = and i32 %64, 255
  %66 = shl i32 %65, 24
  %67 = zext i32 %66 to i64
  %68 = load ptr, ptr %5, align 8, !tbaa !3
  %69 = load i64, ptr %68, align 8, !tbaa !15
  %70 = or i64 %69, %67
  store i64 %70, ptr %68, align 8, !tbaa !15
  %71 = load ptr, ptr %4, align 8, !tbaa !23
  %72 = getelementptr inbounds nuw i8, ptr %71, i32 1
  store ptr %72, ptr %4, align 8, !tbaa !23
  br label %73

73:                                               ; preds = %31
  br label %74

74:                                               ; preds = %73
  br label %127

75:                                               ; preds = %25
  br label %76

76:                                               ; preds = %75
  call void @llvm.lifetime.start.p0(i64 8, ptr %8) #6
  %77 = load ptr, ptr %5, align 8, !tbaa !3
  store i64 0, ptr %77, align 8, !tbaa !15
  %78 = load ptr, ptr %4, align 8, !tbaa !23
  %79 = getelementptr inbounds i8, ptr %78, i64 8
  store ptr %79, ptr %4, align 8, !tbaa !23
  store i64 0, ptr %8, align 8, !tbaa !15
  br label %80

80:                                               ; preds = %93, %76
  %81 = load i64, ptr %8, align 8, !tbaa !15
  %82 = icmp ult i64 %81, 8
  br i1 %82, label %83, label %96

83:                                               ; preds = %80
  %84 = load ptr, ptr %5, align 8, !tbaa !3
  %85 = load i64, ptr %84, align 8, !tbaa !15
  %86 = shl i64 %85, 8
  %87 = load ptr, ptr %4, align 8, !tbaa !23
  %88 = getelementptr inbounds i8, ptr %87, i32 -1
  store ptr %88, ptr %4, align 8, !tbaa !23
  %89 = load i8, ptr %88, align 1, !tbaa !25
  %90 = zext i8 %89 to i64
  %91 = or i64 %86, %90
  %92 = load ptr, ptr %5, align 8, !tbaa !3
  store i64 %91, ptr %92, align 8, !tbaa !15
  br label %93

93:                                               ; preds = %83
  %94 = load i64, ptr %8, align 8, !tbaa !15
  %95 = add i64 %94, 1
  store i64 %95, ptr %8, align 8, !tbaa !15
  br label %80, !llvm.loop !29

96:                                               ; preds = %80
  %97 = load ptr, ptr %4, align 8, !tbaa !23
  %98 = getelementptr inbounds i8, ptr %97, i64 8
  store ptr %98, ptr %4, align 8, !tbaa !23
  call void @llvm.lifetime.end.p0(i64 8, ptr %8) #6
  br label %99

99:                                               ; preds = %96
  br label %100

100:                                              ; preds = %99
  br label %127

101:                                              ; preds = %25
  br label %102

102:                                              ; preds = %101
  %103 = load ptr, ptr %4, align 8, !tbaa !23
  %104 = load i8, ptr %103, align 1, !tbaa !25
  %105 = zext i8 %104 to i32
  %106 = and i32 %105, 255
  %107 = trunc i32 %106 to i16
  %108 = zext i16 %107 to i64
  %109 = load ptr, ptr %5, align 8, !tbaa !3
  store i64 %108, ptr %109, align 8, !tbaa !15
  %110 = load ptr, ptr %4, align 8, !tbaa !23
  %111 = getelementptr inbounds nuw i8, ptr %110, i32 1
  store ptr %111, ptr %4, align 8, !tbaa !23
  %112 = load ptr, ptr %4, align 8, !tbaa !23
  %113 = load i8, ptr %112, align 1, !tbaa !25
  %114 = zext i8 %113 to i32
  %115 = and i32 %114, 255
  %116 = shl i32 %115, 8
  %117 = trunc i32 %116 to i16
  %118 = zext i16 %117 to i64
  %119 = load ptr, ptr %5, align 8, !tbaa !3
  %120 = load i64, ptr %119, align 8, !tbaa !15
  %121 = or i64 %120, %118
  store i64 %121, ptr %119, align 8, !tbaa !15
  %122 = load ptr, ptr %4, align 8, !tbaa !23
  %123 = getelementptr inbounds nuw i8, ptr %122, i32 1
  store ptr %123, ptr %4, align 8, !tbaa !23
  br label %124

124:                                              ; preds = %102
  br label %125

125:                                              ; preds = %124
  br label %127

126:                                              ; preds = %25
  br label %127

127:                                              ; preds = %126, %125, %100, %74
  br label %128

128:                                              ; preds = %127
  br label %129

129:                                              ; preds = %128
  br label %130

130:                                              ; preds = %129, %16
  call void @llvm.lifetime.end.p0(i64 8, ptr %7) #6
  ret i32 0
}