; Function Attrs: nofree norecurse nosync nounwind memory(read, argmem: readwrite, inaccessiblemem: none) uwtable
define internal noundef i32 @H5B2__test_decode(ptr noundef readonly captures(none) %0, ptr noundef writeonly captures(none) %1, ptr noundef readonly captures(none) %2) #2 {
  %4 = load i8, ptr @H5B2_init_g, align 1, !tbaa !3, !range !7, !noundef !8
  %5 = trunc nuw i8 %4 to i1
  %6 = load i8, ptr @H5_libterm_g, align 1, !range !7
  %7 = trunc nuw i8 %6 to i1
  %8 = xor i1 %7, true
  %9 = select i1 %5, i1 true, i1 %8
  br i1 %9, label %10, label %.loopexit, !prof !9

10:                                               ; preds = %3
  %11 = load i8, ptr %2, align 1, !tbaa !12
  switch i8 %11, label %.loopexit [
    i8 4, label %12
    i8 8, label %25
    i8 2, label %35
  ]

12:                                               ; preds = %10
  %13 = load i8, ptr %0, align 1, !tbaa !16
  %14 = zext i8 %13 to i64
  store i64 %14, ptr %1, align 8, !tbaa !10
  %15 = getelementptr inbounds nuw i8, ptr %0, i64 1
  %16 = load i8, ptr %15, align 1, !tbaa !16
  %17 = zext i8 %16 to i64
  %18 = shl nuw nsw i64 %17, 8
  %19 = or disjoint i64 %18, %14
  store i64 %19, ptr %1, align 8, !tbaa !10
  %20 = getelementptr inbounds nuw i8, ptr %0, i64 2
  %21 = load i8, ptr %20, align 1, !tbaa !16
  %22 = zext i8 %21 to i64
  %23 = shl nuw nsw i64 %22, 16
  %24 = or disjoint i64 %23, %19
  br label %.loopexit.sink.split

25:                                               ; preds = %10
  store i64 0, ptr %1, align 8, !tbaa !10
  %26 = getelementptr inbounds nuw i8, ptr %0, i64 8
  br label %27

27:                                               ; preds = %25, %27
  %.029 = phi i64 [ 0, %25 ], [ %34, %27 ]
  %.02728 = phi ptr [ %26, %25 ], [ %30, %27 ]
  %28 = phi i64 [ 0, %25 ], [ %33, %27 ]
  %29 = shl i64 %28, 8
  %30 = getelementptr inbounds i8, ptr %.02728, i64 -1
  %31 = load i8, ptr %30, align 1, !tbaa !16
  %32 = zext i8 %31 to i64
  %33 = or disjoint i64 %29, %32
  store i64 %33, ptr %1, align 8, !tbaa !10
  %34 = add nuw nsw i64 %.029, 1
  %exitcond.not = icmp eq i64 %34, 8
  br i1 %exitcond.not, label %.loopexit, label %27, !llvm.loop !19

35:                                               ; preds = %10
  %36 = load i8, ptr %0, align 1, !tbaa !16
  %37 = zext i8 %36 to i64
  br label %.loopexit.sink.split

.loopexit.sink.split:                             ; preds = %35, %12
  %.sink = phi i64 [ %24, %12 ], [ %37, %35 ]
  %.sink34 = phi i64 [ 3, %12 ], [ 1, %35 ]
  %.sink32 = phi i64 [ 24, %12 ], [ 8, %35 ]
  store i64 %.sink, ptr %1, align 8, !tbaa !10
  %38 = getelementptr inbounds nuw i8, ptr %0, i64 %.sink34
  %39 = load i8, ptr %38, align 1, !tbaa !16
  %40 = zext i8 %39 to i64
  %41 = shl nuw nsw i64 %40, %.sink32
  %42 = or disjoint i64 %41, %.sink
  store i64 %42, ptr %1, align 8, !tbaa !10
  br label %.loopexit

.loopexit:                                        ; preds = %27, %.loopexit.sink.split, %10, %3
  ret i32 0
}